; Function Attrs: mustprogress nounwind uwtable
define hidden void @_ZNK9metaspace12ChunkManager8print_onEP12outputStream(ptr noundef nonnull align 8 dereferenceable(376) %0, ptr noundef %1) local_unnamed_addr #0 align 2 {
  %3 = load ptr, ptr @Metaspace_lock, align 8
  %.not.i.i = icmp eq ptr %3, null
  br i1 %.not.i.i, label %_ZN11MutexLockerD2Ev.exit.critedge, label %_ZN11MutexLockerC2EP5MutexNS0_18SafepointCheckFlagE.exit

_ZN11MutexLockerC2EP5MutexNS0_18SafepointCheckFlagE.exit: ; preds = %2
  tail call void @_ZN5Mutex28lock_without_safepoint_checkEv(ptr noundef nonnull align 8 dereferenceable(104) %3) #10
  %4 = getelementptr inbounds i8, ptr %0, i64 8
  %5 = load ptr, ptr %4, align 8
  %6 = getelementptr inbounds i8, ptr %0, i64 16
  %7 = tail call noundef i32 @_ZNK9metaspace19FreeChunkListVector10num_chunksEv(ptr noundef nonnull align 8 dereferenceable(360) %6) #10
  %8 = tail call noundef i64 @_ZNK9metaspace19FreeChunkListVector9word_sizeEv(ptr noundef nonnull align 8 dereferenceable(360) %6) #10
  tail call void (ptr, ptr, ...) @_ZN12outputStream8print_crEPKcz(ptr noundef nonnull align 8 dereferenceable(56) %1, ptr noundef nonnull @.str.19, ptr noundef %5, i32 noundef %7, i64 noundef %8) #10
  tail call void @_ZNK9metaspace19FreeChunkListVector8print_onEP12outputStream(ptr noundef nonnull align 8 dereferenceable(360) %6, ptr noundef nonnull %1) #10
  tail call void @_ZN5Mutex6unlockEv(ptr noundef nonnull align 8 dereferenceable(104) %3) #10
  br label %_ZN11MutexLockerD2Ev.exit

_ZN11MutexLockerD2Ev.exit.critedge:               ; preds = %2
  %9 = getelementptr inbounds i8, ptr %0, i64 8
  %10 = load ptr, ptr %9, align 8
  %11 = getelementptr inbounds i8, ptr %0, i64 16
  %12 = tail call noundef i32 @_ZNK9metaspace19FreeChunkListVector10num_chunksEv(ptr noundef nonnull align 8 dereferenceable(360) %11) #10
  %13 = tail call noundef i64 @_ZNK9metaspace19FreeChunkListVector9word_sizeEv(ptr noundef nonnull align 8 dereferenceable(360) %11) #10
  tail call void (ptr, ptr, ...) @_ZN12outputStream8print_crEPKcz(ptr noundef nonnull align 8 dereferenceable(56) %1, ptr noundef nonnull @.str.19, ptr noundef %10, i32 noundef %12, i64 noundef %13) #10
  tail call void @_ZNK9metaspace19FreeChunkListVector8print_onEP12outputStream(ptr noundef nonnull align 8 dereferenceable(360) %11, ptr noundef nonnull %1) #10
  br label %_ZN11MutexLockerD2Ev.exit

_ZN11MutexLockerD2Ev.exit:                        ; preds = %_ZN11MutexLockerD2Ev.exit.critedge, %_ZN11MutexLockerC2EP5MutexNS0_18SafepointCheckFlagE.exit
  ret void
}